; Listing generated by Microsoft (R) Optimizing Compiler Version 19.14.26430.0 

	TITLE	G:\Users\Administrator\Desktop\sys_programming\2015440159±èÁ¤¿ë\20180914start\start.cpp
	.686P
	.XMM
	include listing.inc
	.model	flat

INCLUDELIB MSVCRTD
INCLUDELIB OLDNAMES

PUBLIC	_main
EXTRN	__RTC_InitBase:PROC
EXTRN	__RTC_Shutdown:PROC
;	COMDAT rtc$TMZ
rtc$TMZ	SEGMENT
__RTC_Shutdown.rtc$TMZ DD FLAT:__RTC_Shutdown
rtc$TMZ	ENDS
;	COMDAT rtc$IMZ
rtc$IMZ	SEGMENT
__RTC_InitBase.rtc$IMZ DD FLAT:__RTC_InitBase
rtc$IMZ	ENDS
; Function compile flags: /Odtp /RTCsu /ZI
; File g:\users\administrator\desktop\sys_programming\2015440159±èÁ¤¿ë\20180914start\start.cpp
;	COMDAT _main
_TEXT	SEGMENT
_c$ = -32						; size = 4
_b$ = -20						; size = 4
_a$ = -8						; size = 4
_main	PROC						; COMDAT

; 3    : int main() {

  00000	55		 push	 ebp
  00001	8b ec		 mov	 ebp, esp
  00003	81 ec e4 00 00
	00		 sub	 esp, 228		; 000000e4H
  00009	53		 push	 ebx
  0000a	56		 push	 esi
  0000b	57		 push	 edi
  0000c	8d bd 1c ff ff
	ff		 lea	 edi, DWORD PTR [ebp-228]
  00012	b9 39 00 00 00	 mov	 ecx, 57			; 00000039H
  00017	b8 cc cc cc cc	 mov	 eax, -858993460		; ccccccccH
  0001c	f3 ab		 rep stosd

; 4    : 
; 5    : 	int a, b, c;
; 6    : 	a = 0x12345678;

  0001e	c7 45 f8 78 56
	34 12		 mov	 DWORD PTR _a$[ebp], 305419896 ; 12345678H

; 7    : 	b = 20;

  00025	c7 45 ec 14 00
	00 00		 mov	 DWORD PTR _b$[ebp], 20	; 00000014H

; 8    : 	c = a + b;

  0002c	8b 45 f8	 mov	 eax, DWORD PTR _a$[ebp]
  0002f	03 45 ec	 add	 eax, DWORD PTR _b$[ebp]
  00032	89 45 e0	 mov	 DWORD PTR _c$[ebp], eax

; 9    : 
; 10   : 	//printf("%d\n", c);
; 11   : 	return 0;

  00035	33 c0		 xor	 eax, eax

; 12   : }

  00037	5f		 pop	 edi
  00038	5e		 pop	 esi
  00039	5b		 pop	 ebx
  0003a	8b e5		 mov	 esp, ebp
  0003c	5d		 pop	 ebp
  0003d	c3		 ret	 0
_main	ENDP
_TEXT	ENDS
END
